
./test/test.om:     file format elf32-littleriscv


Disassembly of section .rom:

00000000 <.rom>:
   0:	00020137          	lui	sp,0x20
   4:	284010ef          	jal	ra,1288 <main>
   8:	0ff00513          	li	a0,255
   c:	000306b7          	lui	a3,0x30
  10:	00a68223          	sb	a0,4(a3) # 30004 <__heap_start+0x2e004>
  14:	ff9ff06f          	j	c <cd-0xff4>

Disassembly of section .text:

00001000 <cd>:
    1000:	fd010113          	addi	sp,sp,-48 # 1ffd0 <__heap_start+0x1dfd0>
    1004:	01612823          	sw	s6,16(sp)
    1008:	01812423          	sw	s8,8(sp)
    100c:	02112623          	sw	ra,44(sp)
    1010:	02812423          	sw	s0,40(sp)
    1014:	02912223          	sw	s1,36(sp)
    1018:	03212023          	sw	s2,32(sp)
    101c:	01312e23          	sw	s3,28(sp)
    1020:	01412c23          	sw	s4,24(sp)
    1024:	01512a23          	sw	s5,20(sp)
    1028:	01712623          	sw	s7,12(sp)
    102c:	01912223          	sw	s9,4(sp)
    1030:	00100793          	li	a5,1
    1034:	00058c13          	mv	s8,a1
    1038:	00068b13          	mv	s6,a3
    103c:	16f50e63          	beq	a0,a5,11b8 <cd+0x1b8>
    1040:	00001937          	lui	s2,0x1
    1044:	000014b7          	lui	s1,0x1
    1048:	00050993          	mv	s3,a0
    104c:	00060b93          	mv	s7,a2
    1050:	00050c93          	mv	s9,a0
    1054:	3a448493          	addi	s1,s1,932 # 13a4 <main+0x11c>
    1058:	3ac90913          	addi	s2,s2,940 # 13ac <main+0x124>
    105c:	00030437          	lui	s0,0x30
    1060:	00a00a93          	li	s5,10
    1064:	00100a13          	li	s4,1
    1068:	fffc8c93          	addi	s9,s9,-1
    106c:	000b8693          	mv	a3,s7
    1070:	000b0613          	mv	a2,s6
    1074:	000c0593          	mv	a1,s8
    1078:	000c8513          	mv	a0,s9
    107c:	f85ff0ef          	jal	ra,1000 <cd>
    1080:	00050713          	mv	a4,a0
    1084:	00048813          	mv	a6,s1
    1088:	06d00793          	li	a5,109
    108c:	00f40023          	sb	a5,0(s0) # 30000 <__heap_start+0x2e000>
    1090:	00184783          	lbu	a5,1(a6)
    1094:	00180813          	addi	a6,a6,1
    1098:	fe079ae3          	bnez	a5,108c <cd+0x8c>
    109c:	000c4783          	lbu	a5,0(s8)
    10a0:	00078c63          	beqz	a5,10b8 <cd+0xb8>
    10a4:	000c0813          	mv	a6,s8
    10a8:	00f40023          	sb	a5,0(s0)
    10ac:	00184783          	lbu	a5,1(a6)
    10b0:	00180813          	addi	a6,a6,1
    10b4:	fe079ae3          	bnez	a5,10a8 <cd+0xa8>
    10b8:	00090813          	mv	a6,s2
    10bc:	02000793          	li	a5,32
    10c0:	00f40023          	sb	a5,0(s0)
    10c4:	00184783          	lbu	a5,1(a6)
    10c8:	00180813          	addi	a6,a6,1
    10cc:	fe079ae3          	bnez	a5,10c0 <cd+0xc0>
    10d0:	000b4783          	lbu	a5,0(s6)
    10d4:	00078c63          	beqz	a5,10ec <cd+0xec>
    10d8:	000b0813          	mv	a6,s6
    10dc:	00f40023          	sb	a5,0(s0)
    10e0:	00184783          	lbu	a5,1(a6)
    10e4:	00180813          	addi	a6,a6,1
    10e8:	fe079ae3          	bnez	a5,10dc <cd+0xdc>
    10ec:	01540023          	sb	s5,0(s0)
    10f0:	014c8a63          	beq	s9,s4,1104 <cd+0x104>
    10f4:	000c0793          	mv	a5,s8
    10f8:	000b8c13          	mv	s8,s7
    10fc:	00078b93          	mv	s7,a5
    1100:	f69ff06f          	j	1068 <cd+0x68>
    1104:	fff98993          	addi	s3,s3,-1
    1108:	06d00793          	li	a5,109
    110c:	000306b7          	lui	a3,0x30
    1110:	00f68023          	sb	a5,0(a3) # 30000 <__heap_start+0x2e000>
    1114:	0014c783          	lbu	a5,1(s1)
    1118:	00148493          	addi	s1,s1,1
    111c:	fe079ae3          	bnez	a5,1110 <cd+0x110>
    1120:	000bc783          	lbu	a5,0(s7)
    1124:	00078c63          	beqz	a5,113c <cd+0x13c>
    1128:	000306b7          	lui	a3,0x30
    112c:	00f68023          	sb	a5,0(a3) # 30000 <__heap_start+0x2e000>
    1130:	001bc783          	lbu	a5,1(s7)
    1134:	001b8b93          	addi	s7,s7,1
    1138:	fe079ae3          	bnez	a5,112c <cd+0x12c>
    113c:	02000793          	li	a5,32
    1140:	000306b7          	lui	a3,0x30
    1144:	00f68023          	sb	a5,0(a3) # 30000 <__heap_start+0x2e000>
    1148:	00194783          	lbu	a5,1(s2)
    114c:	00190913          	addi	s2,s2,1
    1150:	fe079ae3          	bnez	a5,1144 <cd+0x144>
    1154:	000b4783          	lbu	a5,0(s6)
    1158:	00078c63          	beqz	a5,1170 <cd+0x170>
    115c:	000306b7          	lui	a3,0x30
    1160:	00f68023          	sb	a5,0(a3) # 30000 <__heap_start+0x2e000>
    1164:	001b4783          	lbu	a5,1(s6)
    1168:	001b0b13          	addi	s6,s6,1
    116c:	fe079ae3          	bnez	a5,1160 <cd+0x160>
    1170:	000307b7          	lui	a5,0x30
    1174:	00a00693          	li	a3,10
    1178:	00d78023          	sb	a3,0(a5) # 30000 <__heap_start+0x2e000>
    117c:	02c12083          	lw	ra,44(sp)
    1180:	02812403          	lw	s0,40(sp)
    1184:	00170713          	addi	a4,a4,1
    1188:	02412483          	lw	s1,36(sp)
    118c:	02012903          	lw	s2,32(sp)
    1190:	01812a03          	lw	s4,24(sp)
    1194:	01412a83          	lw	s5,20(sp)
    1198:	01012b03          	lw	s6,16(sp)
    119c:	00c12b83          	lw	s7,12(sp)
    11a0:	00812c03          	lw	s8,8(sp)
    11a4:	00412c83          	lw	s9,4(sp)
    11a8:	01370533          	add	a0,a4,s3
    11ac:	01c12983          	lw	s3,28(sp)
    11b0:	03010113          	addi	sp,sp,48
    11b4:	00008067          	ret
    11b8:	00001937          	lui	s2,0x1
    11bc:	000014b7          	lui	s1,0x1
    11c0:	00058b93          	mv	s7,a1
    11c4:	00000993          	li	s3,0
    11c8:	3a448493          	addi	s1,s1,932 # 13a4 <main+0x11c>
    11cc:	3ac90913          	addi	s2,s2,940 # 13ac <main+0x124>
    11d0:	f39ff06f          	j	1108 <cd+0x108>

000011d4 <__divsi3>:
    11d4:	06054063          	bltz	a0,1234 <__umodsi3+0x10>
    11d8:	0605c663          	bltz	a1,1244 <__umodsi3+0x20>

000011dc <__udivsi3>:
    11dc:	00058613          	mv	a2,a1
    11e0:	00050593          	mv	a1,a0
    11e4:	fff00513          	li	a0,-1
    11e8:	02060c63          	beqz	a2,1220 <__udivsi3+0x44>
    11ec:	00100693          	li	a3,1
    11f0:	00b67a63          	bgeu	a2,a1,1204 <__udivsi3+0x28>
    11f4:	00c05863          	blez	a2,1204 <__udivsi3+0x28>
    11f8:	00161613          	slli	a2,a2,0x1
    11fc:	00169693          	slli	a3,a3,0x1
    1200:	feb66ae3          	bltu	a2,a1,11f4 <__udivsi3+0x18>
    1204:	00000513          	li	a0,0
    1208:	00c5e663          	bltu	a1,a2,1214 <__udivsi3+0x38>
    120c:	40c585b3          	sub	a1,a1,a2
    1210:	00d56533          	or	a0,a0,a3
    1214:	0016d693          	srli	a3,a3,0x1
    1218:	00165613          	srli	a2,a2,0x1
    121c:	fe0696e3          	bnez	a3,1208 <__udivsi3+0x2c>
    1220:	00008067          	ret

00001224 <__umodsi3>:
    1224:	00008293          	mv	t0,ra
    1228:	fb5ff0ef          	jal	ra,11dc <__udivsi3>
    122c:	00058513          	mv	a0,a1
    1230:	00028067          	jr	t0
    1234:	40a00533          	neg	a0,a0
    1238:	00b04863          	bgtz	a1,1248 <__umodsi3+0x24>
    123c:	40b005b3          	neg	a1,a1
    1240:	f9dff06f          	j	11dc <__udivsi3>
    1244:	40b005b3          	neg	a1,a1
    1248:	00008293          	mv	t0,ra
    124c:	f91ff0ef          	jal	ra,11dc <__udivsi3>
    1250:	40a00533          	neg	a0,a0
    1254:	00028067          	jr	t0

00001258 <__modsi3>:
    1258:	00008293          	mv	t0,ra
    125c:	0005ca63          	bltz	a1,1270 <__modsi3+0x18>
    1260:	00054c63          	bltz	a0,1278 <__modsi3+0x20>
    1264:	f79ff0ef          	jal	ra,11dc <__udivsi3>
    1268:	00058513          	mv	a0,a1
    126c:	00028067          	jr	t0
    1270:	40b005b3          	neg	a1,a1
    1274:	fe0558e3          	bgez	a0,1264 <__modsi3+0xc>
    1278:	40a00533          	neg	a0,a0
    127c:	f61ff0ef          	jal	ra,11dc <__udivsi3>
    1280:	40b00533          	neg	a0,a1
    1284:	00028067          	jr	t0

Disassembly of section .text.startup:

00001288 <main>:
    1288:	fb010113          	addi	sp,sp,-80
    128c:	04100793          	li	a5,65
    1290:	00f12623          	sw	a5,12(sp)
    1294:	04200793          	li	a5,66
    1298:	00f12a23          	sw	a5,20(sp)
    129c:	00000713          	li	a4,0
    12a0:	04300793          	li	a5,67
    12a4:	01c10693          	addi	a3,sp,28
    12a8:	01410613          	addi	a2,sp,20
    12ac:	00c10593          	addi	a1,sp,12
    12b0:	00a00513          	li	a0,10
    12b4:	04912223          	sw	s1,68(sp)
    12b8:	03612823          	sw	s6,48(sp)
    12bc:	04112623          	sw	ra,76(sp)
    12c0:	04812423          	sw	s0,72(sp)
    12c4:	05212023          	sw	s2,64(sp)
    12c8:	03312e23          	sw	s3,60(sp)
    12cc:	03412c23          	sw	s4,56(sp)
    12d0:	03512a23          	sw	s5,52(sp)
    12d4:	00010823          	sb	zero,16(sp)
    12d8:	00010c23          	sb	zero,24(sp)
    12dc:	00f12e23          	sw	a5,28(sp)
    12e0:	02010023          	sb	zero,32(sp)
    12e4:	d1dff0ef          	jal	ra,1000 <cd>
    12e8:	00050493          	mv	s1,a0
    12ec:	00000b13          	li	s6,0
    12f0:	00055663          	bgez	a0,12fc <main+0x74>
    12f4:	40a004b3          	neg	s1,a0
    12f8:	00100b13          	li	s6,1
    12fc:	00000413          	li	s0,0
    1300:	02410913          	addi	s2,sp,36
    1304:	00900a13          	li	s4,9
    1308:	00a00593          	li	a1,10
    130c:	00048513          	mv	a0,s1
    1310:	f49ff0ef          	jal	ra,1258 <__modsi3>
    1314:	00040a93          	mv	s5,s0
    1318:	00140413          	addi	s0,s0,1
    131c:	03050793          	addi	a5,a0,48
    1320:	00890733          	add	a4,s2,s0
    1324:	00048513          	mv	a0,s1
    1328:	00a00593          	li	a1,10
    132c:	fef70fa3          	sb	a5,-1(a4)
    1330:	00048993          	mv	s3,s1
    1334:	ea1ff0ef          	jal	ra,11d4 <__divsi3>
    1338:	00050493          	mv	s1,a0
    133c:	fd3a46e3          	blt	s4,s3,1308 <main+0x80>
    1340:	000b0c63          	beqz	s6,1358 <main+0xd0>
    1344:	03010793          	addi	a5,sp,48
    1348:	00878433          	add	s0,a5,s0
    134c:	02d00793          	li	a5,45
    1350:	fef40a23          	sb	a5,-12(s0)
    1354:	002a8413          	addi	s0,s5,2
    1358:	00890433          	add	s0,s2,s0
    135c:	00030737          	lui	a4,0x30
    1360:	fff44783          	lbu	a5,-1(s0)
    1364:	fff40413          	addi	s0,s0,-1
    1368:	00f70023          	sb	a5,0(a4) # 30000 <__heap_start+0x2e000>
    136c:	fe891ae3          	bne	s2,s0,1360 <main+0xd8>
    1370:	00a00793          	li	a5,10
    1374:	00f70023          	sb	a5,0(a4)
    1378:	04c12083          	lw	ra,76(sp)
    137c:	04812403          	lw	s0,72(sp)
    1380:	04412483          	lw	s1,68(sp)
    1384:	04012903          	lw	s2,64(sp)
    1388:	03c12983          	lw	s3,60(sp)
    138c:	03812a03          	lw	s4,56(sp)
    1390:	03412a83          	lw	s5,52(sp)
    1394:	03012b03          	lw	s6,48(sp)
    1398:	00000513          	li	a0,0
    139c:	05010113          	addi	sp,sp,80
    13a0:	00008067          	ret
